target datalayout = "e-m:e-p270:32:32-p271:32:32-p272:64:64-i64:64-i128:128-f80:128-n8:16:32:64-S128"
target triple = "x86_64-pc-linux-gnu"

%"class.OpenSubdiv::v3_6_0::Bfr::SurfaceFactory" = type { %"class.OpenSubdiv::v3_6_0::Bfr::SurfaceFactoryMeshAdapter", i32, %"class.OpenSubdiv::v3_6_0::Sdc::Options", %"class.OpenSubdiv::v3_6_0::Bfr::SurfaceFactory::Options", i8, i32, ptr }
%"class.OpenSubdiv::v3_6_0::Bfr::SurfaceFactoryMeshAdapter" = type { ptr }
%"class.OpenSubdiv::v3_6_0::Sdc::Options" = type { i8, i8, i8, i8 }
%"class.OpenSubdiv::v3_6_0::Bfr::SurfaceFactory::Options" = type <{ i64, ptr, i8, i8, i8, [5 x i8] }>
%"class.OpenSubdiv::v3_6_0::Bfr::MultiVertexTag" = type { %"class.OpenSubdiv::v3_6_0::Bfr::FeatureBits" }
%"class.OpenSubdiv::v3_6_0::Bfr::FeatureBits" = type { i16 }
%"class.OpenSubdiv::v3_6_0::Bfr::FaceTopology" = type { i32, %"class.OpenSubdiv::v3_6_0::Sdc::Options", i32, i32, i32, %"class.OpenSubdiv::v3_6_0::Bfr::MultiVertexTag", i8, %"class.OpenSubdiv::v3_6_0::Vtr::internal::StackBuffer" }
%"class.OpenSubdiv::v3_6_0::Vtr::internal::StackBuffer" = type { ptr, i32, i32, [896 x i8], ptr }
%"class.OpenSubdiv::v3_6_0::Bfr::FaceVertex" = type { %"class.OpenSubdiv::v3_6_0::Bfr::VertexDescriptor", %"class.OpenSubdiv::v3_6_0::Bfr::VertexTag", i16, i16, i8, i8, i32, %"class.OpenSubdiv::v3_6_0::Vtr::internal::StackBuffer.3" }
%"class.OpenSubdiv::v3_6_0::Bfr::VertexDescriptor" = type { i8, i16, float, %"class.OpenSubdiv::v3_6_0::Vtr::internal::StackBuffer.1", %"class.OpenSubdiv::v3_6_0::Vtr::internal::StackBuffer.2" }
%"class.OpenSubdiv::v3_6_0::Vtr::internal::StackBuffer.1" = type { ptr, i32, i32, [64 x i8], ptr }
%"class.OpenSubdiv::v3_6_0::Vtr::internal::StackBuffer.2" = type { ptr, i32, i32, [32 x i8], ptr }
%"class.OpenSubdiv::v3_6_0::Bfr::VertexTag" = type { %"class.OpenSubdiv::v3_6_0::Bfr::FeatureBits" }
%"class.OpenSubdiv::v3_6_0::Vtr::internal::StackBuffer.3" = type { ptr, i32, i32, [32 x i8], ptr }

; Function Attrs: mustprogress nounwind uwtable
define linkonce_odr noundef ptr @_ZN10OpenSubdiv6v3_6_03Vtr8internal11StackBufferINS0_3Bfr10FaceVertexELj4ELb0EEcvPS5_Ev(ptr noundef nonnull align 8 dereferenceable(920) %0) #0 comdat align 2 {
  %2 = alloca ptr, align 8
  store ptr %0, ptr %2, align 8
  %3 = load ptr, ptr %2, align 8
  %4 = getelementptr inbounds nuw %"class.OpenSubdiv::v3_6_0::Vtr::internal::StackBuffer", ptr %3, i32 0, i32 0
  %5 = load ptr, ptr %4, align 8
  ret ptr %5
}

; Function Attrs: mustprogress nounwind uwtable
define linkonce_odr noundef nonnull align 8 dereferenceable(152) ptr @_ZN10OpenSubdiv6v3_6_03Bfr10FaceVertex19GetVertexDescriptorEv(ptr noundef nonnull align 8 dereferenceable(224) %0) #0 comdat align 2 {
  %2 = alloca ptr, align 8
  store ptr %0, ptr %2, align 8
  %3 = load ptr, ptr %2, align 8
  %4 = getelementptr inbounds nuw %"class.OpenSubdiv::v3_6_0::Bfr::FaceVertex", ptr %3, i32 0, i32 0
  ret ptr %4
}

; Function Attrs: mustprogress uwtable
define linkonce_odr noundef nonnull align 8 dereferenceable(224) ptr @_ZN10OpenSubdiv6v3_6_03Bfr12FaceTopology11GetTopologyEi(ptr noundef nonnull align 8 dereferenceable(944) %0, i32 noundef %1) #1 comdat align 2 {
  %3 = alloca ptr, align 8
  %4 = alloca i32, align 4
  store ptr %0, ptr %3, align 8
  store i32 %1, ptr %4, align 4
  %5 = load ptr, ptr %3, align 8
  %6 = getelementptr inbounds nuw %"class.OpenSubdiv::v3_6_0::Bfr::FaceTopology", ptr %5, i32 0, i32 7
  %7 = call noundef ptr @_ZN10OpenSubdiv6v3_6_03Vtr8internal11StackBufferINS0_3Bfr10FaceVertexELj4ELb0EEcvPS5_Ev(ptr noundef nonnull align 8 dereferenceable(920) %6)
  %8 = load i32, ptr %4, align 4
  %9 = sext i32 %8 to i64
  %10 = getelementptr inbounds %"class.OpenSubdiv::v3_6_0::Bfr::FaceVertex", ptr %7, i64 %9
  ret ptr %10
}

; Function Attrs: mustprogress uwtable
define noundef zeroext i1 @_ZNK10OpenSubdiv6v3_6_03Bfr14SurfaceFactory30gatherFaceNeighborhoodTopologyEiPNS1_12FaceTopologyE(ptr noundef nonnull align 8 dereferenceable(56) %0, i32 noundef %1, ptr noundef %2) #1 align 2 {
  %4 = alloca i1, align 1
  %5 = alloca ptr, align 8
  %6 = alloca i32, align 4
  %7 = alloca ptr, align 8
  %8 = alloca ptr, align 8
  %9 = alloca i32, align 4
  %10 = alloca i32, align 4
  %11 = alloca ptr, align 8
  %12 = alloca ptr, align 8
  %13 = alloca i32, align 4
  store ptr %0, ptr %5, align 8
  store i32 %1, ptr %6, align 4
  store ptr %2, ptr %7, align 8
  %14 = load ptr, ptr %5, align 8
  %15 = load ptr, ptr %7, align 8
  store ptr %15, ptr %8, align 8
  %16 = load i32, ptr %6, align 4
  %17 = load ptr, ptr %14, align 8
  %18 = getelementptr inbounds ptr, ptr %17, i64 3
  %19 = load ptr, ptr %18, align 8
  %20 = call noundef i32 %19(ptr noundef nonnull align 8 dereferenceable(8) %14, i32 noundef %16)
  store i32 %20, ptr %9, align 4
  %21 = load ptr, ptr %8, align 8
  %22 = load i32, ptr %9, align 4
  call void @_ZN10OpenSubdiv6v3_6_03Bfr12FaceTopology10InitializeEi(ptr noundef nonnull align 8 dereferenceable(944) %21, i32 noundef %22)
  store i32 0, ptr %10, align 4
  br label %23

23:                                               ; preds = %50, %3
  %24 = load i32, ptr %10, align 4
  %25 = load i32, ptr %9, align 4
  %26 = icmp slt i32 %24, %25
  br i1 %26, label %27, label %53

27:                                               ; preds = %23
  %28 = load ptr, ptr %8, align 8
  %29 = load i32, ptr %10, align 4
  %30 = call noundef nonnull align 8 dereferenceable(224) ptr @_ZN10OpenSubdiv6v3_6_03Bfr12FaceTopology11GetTopologyEi(ptr noundef nonnull align 8 dereferenceable(944) %28, i32 noundef %29)
  store ptr %30, ptr %11, align 8
  %31 = load ptr, ptr %11, align 8
  %32 = call noundef nonnull align 8 dereferenceable(152) ptr @_ZN10OpenSubdiv6v3_6_03Bfr10FaceVertex19GetVertexDescriptorEv(ptr noundef nonnull align 8 dereferenceable(224) %31)
  store ptr %32, ptr %12, align 8
  %33 = load ptr, ptr %11, align 8
  %34 = load i32, ptr %9, align 4
  %35 = getelementptr inbounds nuw %"class.OpenSubdiv::v3_6_0::Bfr::SurfaceFactory", ptr %14, i32 0, i32 5
  %36 = load i32, ptr %35, align 4
  call void @_ZN10OpenSubdiv6v3_6_03Bfr10FaceVertex10InitializeEii(ptr noundef nonnull align 8 dereferenceable(224) %33, i32 noundef %34, i32 noundef %36)
  %37 = load i32, ptr %6, align 4
  %38 = load i32, ptr %10, align 4
  %39 = load ptr, ptr %12, align 8
  %40 = load ptr, ptr %14, align 8
  %41 = getelementptr inbounds ptr, ptr %40, i64 6
  %42 = load ptr, ptr %41, align 8
  %43 = call noundef i32 %42(ptr noundef nonnull align 8 dereferenceable(8) %14, i32 noundef %37, i32 noundef %38, ptr noundef %39)
  store i32 %43, ptr %13, align 4
  %44 = load i32, ptr %13, align 4
  %45 = icmp slt i32 %44, 0
  br i1 %45, label %46, label %47

46:                                               ; preds = %27
  store i1 false, ptr %4, align 1
  br label %55

47:                                               ; preds = %27
  %48 = load ptr, ptr %11, align 8
  %49 = load i32, ptr %13, align 4
  call void @_ZN10OpenSubdiv6v3_6_03Bfr10FaceVertex8FinalizeEi(ptr noundef nonnull align 8 dereferenceable(224) %48, i32 noundef %49)
  br label %50

50:                                               ; preds = %47
  %51 = load i32, ptr %10, align 4
  %52 = add nsw i32 %51, 1
  store i32 %52, ptr %10, align 4
  br label %23, !llvm.loop !14

53:                                               ; preds = %23
  %54 = load ptr, ptr %8, align 8
  call void @_ZN10OpenSubdiv6v3_6_03Bfr12FaceTopology8FinalizeEv(ptr noundef nonnull align 8 dereferenceable(944) %54)
  store i1 true, ptr %4, align 1
  br label %55

55:                                               ; preds = %53, %46
  %56 = load i1, ptr %4, align 1
  ret i1 %56
}