; Function Attrs: mustprogress uwtable
define noundef zeroext i1 @_ZNK10OpenSubdiv6v3_6_03Bfr14SurfaceFactory30gatherFaceNeighborhoodTopologyEiPNS1_12FaceTopologyE(ptr noundef nonnull align 8 dereferenceable(56) %0, i32 noundef %1, ptr noundef %2) local_unnamed_addr #2 align 2 {
  %4 = load ptr, ptr %0, align 8
  %5 = getelementptr inbounds nuw i8, ptr %4, i64 24
  %6 = load ptr, ptr %5, align 8
  %7 = tail call noundef i32 %6(ptr noundef nonnull align 8 dereferenceable(8) %0, i32 noundef %1)
  tail call void @_ZN10OpenSubdiv6v3_6_03Bfr12FaceTopology10InitializeEi(ptr noundef nonnull align 8 dereferenceable(944) %2, i32 noundef %7)
  %8 = icmp slt i32 %7, 1
  br i1 %8, label %._crit_edge, label %.lr.ph

.lr.ph:                                           ; preds = %3
  %9 = getelementptr inbounds nuw i8, ptr %2, i64 24
  %10 = getelementptr inbounds nuw i8, ptr %0, i64 44
  %wide.trip.count = zext nneg i32 %7 to i64
  br label %11

11:                                               ; preds = %.lr.ph, %21
  %indvars.iv = phi i64 [ 0, %.lr.ph ], [ %indvars.iv.next, %21 ]
  %12 = load ptr, ptr %9, align 8
  %13 = getelementptr inbounds nuw %"class.OpenSubdiv::v3_6_0::Bfr::FaceVertex", ptr %12, i64 %indvars.iv
  %14 = load i32, ptr %10, align 4
  tail call void @_ZN10OpenSubdiv6v3_6_03Bfr10FaceVertex10InitializeEii(ptr noundef nonnull align 8 dereferenceable(224) %13, i32 noundef %7, i32 noundef %14)
  %15 = load ptr, ptr %0, align 8
  %16 = getelementptr inbounds nuw i8, ptr %15, i64 48
  %17 = load ptr, ptr %16, align 8
  %18 = trunc nuw nsw i64 %indvars.iv to i32
  %19 = tail call noundef i32 %17(ptr noundef nonnull align 8 dereferenceable(8) %0, i32 noundef %1, i32 noundef %18, ptr noundef nonnull %13)
  %20 = icmp slt i32 %19, 0
  br i1 %20, label %.loopexit, label %21

21:                                               ; preds = %11
  tail call void @_ZN10OpenSubdiv6v3_6_03Bfr10FaceVertex8FinalizeEi(ptr noundef nonnull align 8 dereferenceable(224) %13, i32 noundef %19)
  %indvars.iv.next = add nuw nsw i64 %indvars.iv, 1
  %exitcond.not = icmp eq i64 %indvars.iv.next, %wide.trip.count
  br i1 %exitcond.not, label %._crit_edge, label %11, !llvm.loop !23

._crit_edge:                                      ; preds = %21, %3
  tail call void @_ZN10OpenSubdiv6v3_6_03Bfr12FaceTopology8FinalizeEv(ptr noundef nonnull align 8 dereferenceable(944) %2)
  br label %.loopexit

.loopexit:                                        ; preds = %11, %._crit_edge
  %22 = phi i1 [ true, %._crit_edge ], [ false, %11 ]
  ret i1 %22
}